target datalayout = "e-m:e-p270:32:32-p271:32:32-p272:64:64-i64:64-i128:128-f80:128-n8:16:32:64-S128"
target triple = "x86_64-pc-linux-gnu"

%class.outputStream = type { ptr, i32, i8, i32, i64, %class.TimeStamp, ptr, i64 }
%class.TimeStamp = type { i64 }

@.str.4 = private unnamed_addr constant [9 x i8] c"        \00", align 1
@.str.5 = private unnamed_addr constant [2 x i8] c"\0A\00", align 1
@.str.9 = private unnamed_addr constant [7 x i8] c"%07lx:\00", align 1
@.str.10 = private unnamed_addr constant [10 x i8] c"0x%016lx:\00", align 1
@.str.11 = private unnamed_addr constant [2 x i8] c" \00", align 1
@.str.12 = private unnamed_addr constant [5 x i8] c"%02x\00", align 1
@.str.13 = private unnamed_addr constant [3 x i8] c"  \00", align 1
@.str.14 = private unnamed_addr constant [3 x i8] c"%c\00", align 1

; Function Attrs: mustprogress nounwind uwtable
define hidden void @_ZN12outputStream2spEi(ptr noundef nonnull align 8 dereferenceable(56) %0, i32 noundef %1) #1 align 2 {
  %3 = alloca ptr, align 8
  %4 = alloca i32, align 4
  %5 = alloca i32, align 4
  store ptr %0, ptr %3, align 8
  store i32 %1, ptr %4, align 4
  %6 = load ptr, ptr %3, align 8
  %7 = load i32, ptr %4, align 4
  %8 = icmp slt i32 %7, 0
  br i1 %8, label %9, label %10

9:                                                ; preds = %2
  br label %30

10:                                               ; preds = %2
  br label %11

11:                                               ; preds = %20, %10
  %12 = load i32, ptr %4, align 4
  %13 = icmp sgt i32 %12, 0
  br i1 %13, label %14, label %30

14:                                               ; preds = %11
  %15 = load i32, ptr %4, align 4
  %16 = icmp sgt i32 %15, 8
  br i1 %16, label %17, label %18

17:                                               ; preds = %14
  br label %20

18:                                               ; preds = %14
  %19 = load i32, ptr %4, align 4
  br label %20

20:                                               ; preds = %18, %17
  %21 = phi i32 [ 8, %17 ], [ %19, %18 ]
  store i32 %21, ptr %5, align 4
  %22 = load i32, ptr %5, align 4
  %23 = sext i32 %22 to i64
  %24 = load ptr, ptr %6, align 8
  %25 = getelementptr inbounds ptr, ptr %24, i64 1
  %26 = load ptr, ptr %25, align 8
  call void %26(ptr noundef nonnull align 8 dereferenceable(56) %6, ptr noundef @.str.4, i64 noundef %23)
  %27 = load i32, ptr %5, align 4
  %28 = load i32, ptr %4, align 4
  %29 = sub nsw i32 %28, %27
  store i32 %29, ptr %4, align 4
  br label %11, !llvm.loop !8

30:                                               ; preds = %11, %9
  ret void
}

; Function Attrs: mustprogress nounwind uwtable
define hidden void @_ZN12outputStream2crEv(ptr noundef nonnull align 8 dereferenceable(56) %0) #1 align 2 {
  %2 = alloca ptr, align 8
  store ptr %0, ptr %2, align 8
  %3 = load ptr, ptr %2, align 8
  %4 = load ptr, ptr %3, align 8
  %5 = getelementptr inbounds ptr, ptr %4, i64 1
  %6 = load ptr, ptr %5, align 8
  call void %6(ptr noundef nonnull align 8 dereferenceable(56) %3, ptr noundef @.str.5, i64 noundef 1)
  ret void
}

; Function Attrs: mustprogress nounwind uwtable
define linkonce_odr hidden noundef i64 @_Z3p2iPVKv(ptr noundef %0) #1 comdat {
  %2 = alloca ptr, align 8
  store ptr %0, ptr %2, align 8
  %3 = load ptr, ptr %2, align 8
  %4 = ptrtoint ptr %3 to i64
  ret i64 %4
}

; Function Attrs: mustprogress nounwind uwtable
define hidden noundef nonnull align 8 dereferenceable(56) ptr @_ZN12outputStream6indentEv(ptr noundef nonnull align 8 dereferenceable(56) %0) #1 align 2 {
  %2 = alloca ptr, align 8
  store ptr %0, ptr %2, align 8
  %3 = load ptr, ptr %2, align 8
  %4 = getelementptr inbounds %class.outputStream, ptr %3, i32 0, i32 1
  %5 = load i32, ptr %4, align 8
  %6 = getelementptr inbounds %class.outputStream, ptr %3, i32 0, i32 3
  %7 = load i32, ptr %6, align 8
  %8 = sub nsw i32 %5, %7
  call void @_ZN12outputStream2spEi(ptr noundef nonnull align 8 dereferenceable(56) %3, i32 noundef %8)
  ret ptr %3
}

; Function Attrs: mustprogress nounwind uwtable
define hidden void @_ZN12outputStream10print_dataEPvmbb(ptr noundef nonnull align 8 dereferenceable(56) %0, ptr noundef %1, i64 noundef %2, i1 noundef zeroext %3, i1 noundef zeroext %4) #1 align 2 {
  %6 = alloca ptr, align 8
  %7 = alloca ptr, align 8
  %8 = alloca i64, align 8
  %9 = alloca i8, align 1
  %10 = alloca i8, align 1
  %11 = alloca i64, align 8
  %12 = alloca i64, align 8
  %13 = alloca i64, align 8
  %14 = alloca i64, align 8
  %15 = alloca i8, align 1
  store ptr %0, ptr %6, align 8
  store ptr %1, ptr %7, align 8
  store i64 %2, ptr %8, align 8
  %16 = zext i1 %3 to i8
  store i8 %16, ptr %9, align 1
  %17 = zext i1 %4 to i8
  store i8 %17, ptr %10, align 1
  %18 = load ptr, ptr %6, align 8
  %19 = load i64, ptr %8, align 8
  %20 = add i64 %19, 16
  %21 = udiv i64 %20, 16
  %22 = mul i64 %21, 16
  store i64 %22, ptr %11, align 8
  store i64 0, ptr %12, align 8
  br label %23

23:                                               ; preds = %105, %5
  %24 = load i64, ptr %12, align 8
  %25 = load i64, ptr %11, align 8
  %26 = icmp ult i64 %24, %25
  br i1 %26, label %27, label %108

27:                                               ; preds = %23
  %28 = load i64, ptr %12, align 8
  %29 = urem i64 %28, 16
  %30 = icmp eq i64 %29, 0
  br i1 %30, label %31, label %44

31:                                               ; preds = %27
  %32 = load i8, ptr %10, align 1
  %33 = trunc i8 %32 to i1
  br i1 %33, label %34, label %37

34:                                               ; preds = %31
  %35 = call noundef nonnull align 8 dereferenceable(56) ptr @_ZN12outputStream6indentEv(ptr noundef nonnull align 8 dereferenceable(56) %18)
  %36 = load i64, ptr %12, align 8
  call void (ptr, ptr, ...) @_ZN12outputStream5printEPKcz(ptr noundef nonnull align 8 dereferenceable(56) %35, ptr noundef @.str.9, i64 noundef %36)
  br label %43

37:                                               ; preds = %31
  %38 = call noundef nonnull align 8 dereferenceable(56) ptr @_ZN12outputStream6indentEv(ptr noundef nonnull align 8 dereferenceable(56) %18)
  %39 = load ptr, ptr %7, align 8
  %40 = load i64, ptr %12, align 8
  %41 = getelementptr inbounds i8, ptr %39, i64 %40
  %42 = call noundef i64 @_Z3p2iPVKv(ptr noundef %41)
  call void (ptr, ptr, ...) @_ZN12outputStream5printEPKcz(ptr noundef nonnull align 8 dereferenceable(56) %38, ptr noundef @.str.10, i64 noundef %42)
  br label %43

43:                                               ; preds = %37, %34
  br label %44

44:                                               ; preds = %43, %27
  %45 = load i64, ptr %12, align 8
  %46 = urem i64 %45, 2
  %47 = icmp eq i64 %46, 0
  br i1 %47, label %48, label %49

48:                                               ; preds = %44
  call void (ptr, ptr, ...) @_ZN12outputStream5printEPKcz(ptr noundef nonnull align 8 dereferenceable(56) %18, ptr noundef @.str.11)
  br label %49

49:                                               ; preds = %48, %44
  %50 = load i64, ptr %12, align 8
  %51 = load i64, ptr %8, align 8
  %52 = icmp ult i64 %50, %51
  br i1 %52, label %53, label %59

53:                                               ; preds = %49
  %54 = load ptr, ptr %7, align 8
  %55 = load i64, ptr %12, align 8
  %56 = getelementptr inbounds i8, ptr %54, i64 %55
  %57 = load i8, ptr %56, align 1
  %58 = zext i8 %57 to i32
  call void (ptr, ptr, ...) @_ZN12outputStream5printEPKcz(ptr noundef nonnull align 8 dereferenceable(56) %18, ptr noundef @.str.12, i32 noundef %58)
  br label %60

59:                                               ; preds = %49
  call void (ptr, ptr, ...) @_ZN12outputStream5printEPKcz(ptr noundef nonnull align 8 dereferenceable(56) %18, ptr noundef @.str.13)
  br label %60

60:                                               ; preds = %59, %53
  %61 = load i64, ptr %12, align 8
  %62 = add i64 %61, 1
  %63 = urem i64 %62, 16
  %64 = icmp eq i64 %63, 0
  br i1 %64, label %65, label %104

65:                                               ; preds = %60
  %66 = load i8, ptr %9, align 1
  %67 = trunc i8 %66 to i1
  br i1 %67, label %68, label %103

68:                                               ; preds = %65
  call void (ptr, ptr, ...) @_ZN12outputStream5printEPKcz(ptr noundef nonnull align 8 dereferenceable(56) %18, ptr noundef @.str.13)
  store i64 0, ptr %13, align 8
  br label %69

69:                                               ; preds = %99, %68
  %70 = load i64, ptr %13, align 8
  %71 = icmp ult i64 %70, 16
  br i1 %71, label %72, label %102

72:                                               ; preds = %69
  %73 = load i64, ptr %12, align 8
  %74 = load i64, ptr %13, align 8
  %75 = add i64 %73, %74
  %76 = sub i64 %75, 15
  store i64 %76, ptr %14, align 8
  %77 = load i64, ptr %14, align 8
  %78 = load i64, ptr %8, align 8
  %79 = icmp ult i64 %77, %78
  br i1 %79, label %80, label %98

80:                                               ; preds = %72
  %81 = load ptr, ptr %7, align 8
  %82 = load i64, ptr %14, align 8
  %83 = getelementptr inbounds i8, ptr %81, i64 %82
  %84 = load i8, ptr %83, align 1
  store i8 %84, ptr %15, align 1
  %85 = load i8, ptr %15, align 1
  %86 = sext i8 %85 to i32
  %87 = icmp sge i32 %86, 32
  br i1 %87, label %88, label %94

88:                                               ; preds = %80
  %89 = load i8, ptr %15, align 1
  %90 = sext i8 %89 to i32
  %91 = icmp sle i32 %90, 126
  br i1 %91, label %92, label %94

92:                                               ; preds = %88
  %93 = load i8, ptr %15, align 1
  br label %95

94:                                               ; preds = %88, %80
  br label %95

95:                                               ; preds = %94, %92
  %96 = phi i8 [ %93, %92 ], [ 46, %94 ]
  %97 = sext i8 %96 to i32
  call void (ptr, ptr, ...) @_ZN12outputStream5printEPKcz(ptr noundef nonnull align 8 dereferenceable(56) %18, ptr noundef @.str.14, i32 noundef %97)
  br label %98

98:                                               ; preds = %95, %72
  br label %99

99:                                               ; preds = %98
  %100 = load i64, ptr %13, align 8
  %101 = add i64 %100, 1
  store i64 %101, ptr %13, align 8
  br label %69, !llvm.loop !9

102:                                              ; preds = %69
  br label %103

103:                                              ; preds = %102, %65
  call void @_ZN12outputStream2crEv(ptr noundef nonnull align 8 dereferenceable(56) %18)
  br label %104

104:                                              ; preds = %103, %60
  br label %105

105:                                              ; preds = %104
  %106 = load i64, ptr %12, align 8
  %107 = add i64 %106, 1
  store i64 %107, ptr %12, align 8
  br label %23, !llvm.loop !10

108:                                              ; preds = %23
  ret void
}