; Function Attrs: mustprogress nounwind uwtable
define hidden void @_ZN12outputStream10print_dataEPvmbb(ptr noundef nonnull align 8 dereferenceable(56) %0, ptr noundef %1, i64 noundef %2, i1 noundef zeroext %3, i1 noundef zeroext %4) local_unnamed_addr #0 align 2 {
  %6 = and i64 %2, -16
  %7 = add i64 %6, 16
  %.not = icmp eq i64 %7, 0
  br i1 %.not, label %._crit_edge, label %.lr.ph

.lr.ph:                                           ; preds = %5
  %8 = getelementptr inbounds i8, ptr %0, i64 8
  %9 = getelementptr inbounds i8, ptr %0, i64 16
  br label %10

10:                                               ; preds = %.lr.ph, %66
  %.036 = phi i64 [ 0, %.lr.ph ], [ %46, %66 ]
  %11 = and i64 %.036, 15
  %12 = icmp eq i64 %11, 0
  br i1 %12, label %13, label %34

13:                                               ; preds = %10
  %14 = load i32, ptr %8, align 8
  %15 = load i32, ptr %9, align 8
  %16 = sub nsw i32 %14, %15
  %17 = icmp sgt i32 %16, 0
  br i1 %4, label %18, label %25

18:                                               ; preds = %13
  br i1 %17, label %.preheader.i.i, label %_ZN12outputStream6indentEv.exit

.preheader.i.i:                                   ; preds = %18, %.preheader.i.i
  %.0.i.i = phi i32 [ %24, %.preheader.i.i ], [ %16, %18 ]
  %19 = tail call i32 @llvm.umin.i32(i32 %.0.i.i, i32 8)
  %20 = zext nneg i32 %19 to i64
  %21 = load ptr, ptr %0, align 8
  %22 = getelementptr inbounds i8, ptr %21, i64 8
  %23 = load ptr, ptr %22, align 8
  tail call void %23(ptr noundef nonnull align 8 dereferenceable(56) %0, ptr noundef nonnull @.str.4, i64 noundef %20) #21
  %24 = sub nsw i32 %.0.i.i, %19
  %.old1.i.i = icmp sgt i32 %24, 0
  br i1 %.old1.i.i, label %.preheader.i.i, label %_ZN12outputStream6indentEv.exit

_ZN12outputStream6indentEv.exit:                  ; preds = %.preheader.i.i, %18
  tail call void (ptr, ptr, ...) @_ZN12outputStream5printEPKcz(ptr noundef nonnull align 8 dereferenceable(56) %0, ptr noundef nonnull @.str.9, i64 noundef %.036)
  br label %34

25:                                               ; preds = %13
  br i1 %17, label %.preheader.i.i31, label %_ZN12outputStream6indentEv.exit34

.preheader.i.i31:                                 ; preds = %25, %.preheader.i.i31
  %.0.i.i32 = phi i32 [ %31, %.preheader.i.i31 ], [ %16, %25 ]
  %26 = tail call i32 @llvm.umin.i32(i32 %.0.i.i32, i32 8)
  %27 = zext nneg i32 %26 to i64
  %28 = load ptr, ptr %0, align 8
  %29 = getelementptr inbounds i8, ptr %28, i64 8
  %30 = load ptr, ptr %29, align 8
  tail call void %30(ptr noundef nonnull align 8 dereferenceable(56) %0, ptr noundef nonnull @.str.4, i64 noundef %27) #21
  %31 = sub nsw i32 %.0.i.i32, %26
  %.old1.i.i33 = icmp sgt i32 %31, 0
  br i1 %.old1.i.i33, label %.preheader.i.i31, label %_ZN12outputStream6indentEv.exit34

_ZN12outputStream6indentEv.exit34:                ; preds = %.preheader.i.i31, %25
  %32 = getelementptr inbounds i8, ptr %1, i64 %.036
  %33 = ptrtoint ptr %32 to i64
  tail call void (ptr, ptr, ...) @_ZN12outputStream5printEPKcz(ptr noundef nonnull align 8 dereferenceable(56) %0, ptr noundef nonnull @.str.10, i64 noundef %33)
  br label %34

34:                                               ; preds = %_ZN12outputStream6indentEv.exit, %_ZN12outputStream6indentEv.exit34, %10
  %35 = and i64 %.036, 1
  %36 = icmp eq i64 %35, 0
  br i1 %36, label %37, label %38

37:                                               ; preds = %34
  tail call void (ptr, ptr, ...) @_ZN12outputStream5printEPKcz(ptr noundef nonnull align 8 dereferenceable(56) %0, ptr noundef nonnull @.str.11)
  br label %38

38:                                               ; preds = %37, %34
  %39 = icmp ult i64 %.036, %2
  br i1 %39, label %40, label %44

40:                                               ; preds = %38
  %41 = getelementptr inbounds i8, ptr %1, i64 %.036
  %42 = load i8, ptr %41, align 1
  %43 = zext i8 %42 to i32
  tail call void (ptr, ptr, ...) @_ZN12outputStream5printEPKcz(ptr noundef nonnull align 8 dereferenceable(56) %0, ptr noundef nonnull @.str.12, i32 noundef %43)
  br label %45

44:                                               ; preds = %38
  tail call void (ptr, ptr, ...) @_ZN12outputStream5printEPKcz(ptr noundef nonnull align 8 dereferenceable(56) %0, ptr noundef nonnull @.str.13)
  br label %45

45:                                               ; preds = %44, %40
  %46 = add nuw i64 %.036, 1
  %47 = and i64 %46, 15
  %48 = icmp eq i64 %47, 0
  br i1 %48, label %49, label %66

49:                                               ; preds = %45
  br i1 %3, label %50, label %.loopexit

50:                                               ; preds = %49
  tail call void (ptr, ptr, ...) @_ZN12outputStream5printEPKcz(ptr noundef nonnull align 8 dereferenceable(56) %0, ptr noundef nonnull @.str.13)
  %51 = add i64 %.036, -15
  br label %52

52:                                               ; preds = %50, %61
  %.02935 = phi i64 [ 0, %50 ], [ %62, %61 ]
  %53 = add i64 %51, %.02935
  %54 = icmp ult i64 %53, %2
  br i1 %54, label %55, label %61

55:                                               ; preds = %52
  %56 = getelementptr inbounds i8, ptr %1, i64 %53
  %57 = load i8, ptr %56, align 1
  %58 = add i8 %57, -32
  %or.cond = icmp ult i8 %58, 95
  %59 = select i1 %or.cond, i8 %57, i8 46
  %60 = sext i8 %59 to i32
  tail call void (ptr, ptr, ...) @_ZN12outputStream5printEPKcz(ptr noundef nonnull align 8 dereferenceable(56) %0, ptr noundef nonnull @.str.14, i32 noundef %60)
  br label %61

61:                                               ; preds = %52, %55
  %62 = add nuw nsw i64 %.02935, 1
  %exitcond.not = icmp eq i64 %62, 16
  br i1 %exitcond.not, label %.loopexit, label %52, !llvm.loop !8

.loopexit:                                        ; preds = %61, %49
  %63 = load ptr, ptr %0, align 8
  %64 = getelementptr inbounds i8, ptr %63, i64 8
  %65 = load ptr, ptr %64, align 8
  tail call void %65(ptr noundef nonnull align 8 dereferenceable(56) %0, ptr noundef nonnull @.str.5, i64 noundef 1) #21
  br label %66

66:                                               ; preds = %45, %.loopexit
  %exitcond37.not = icmp eq i64 %46, %7
  br i1 %exitcond37.not, label %._crit_edge, label %10, !llvm.loop !9

._crit_edge:                                      ; preds = %66, %5
  ret void
}